; Function Attrs: nounwind uwtable
define internal ptr @dict_setdefault(ptr noundef %0, ptr noundef readonly captures(none) %1, i64 noundef %2) #0 {
  %4 = alloca ptr, align 8
  %5 = add i64 %2, -1
  %or.cond = icmp ult i64 %5, 2
  br i1 %or.cond, label %8, label %6

6:                                                ; preds = %3
  %7 = tail call i32 @_PyArg_CheckPositional(ptr noundef nonnull @.str.55, i64 noundef %2, i64 noundef 1, i64 noundef 2) #23
  %.not = icmp eq i32 %7, 0
  br i1 %.not, label %17, label %8

8:                                                ; preds = %3, %6
  %9 = load ptr, ptr %1, align 8, !tbaa !64
  %10 = icmp slt i64 %2, 2
  br i1 %10, label %14, label %11

11:                                               ; preds = %8
  %12 = getelementptr i8, ptr %1, i64 8
  %13 = load ptr, ptr %12, align 8, !tbaa !64
  br label %14

14:                                               ; preds = %8, %11
  %.0 = phi ptr [ @_Py_NoneStruct, %8 ], [ %13, %11 ]
  call void @llvm.lifetime.start.p0(i64 8, ptr nonnull %4) #23
  %15 = call fastcc i32 @dict_setdefault_ref_lock_held(ptr noundef %0, ptr noundef %9, ptr noundef %.0, ptr noundef nonnull %4, i32 noundef 1)
  %16 = load ptr, ptr %4, align 8, !tbaa !64
  call void @llvm.lifetime.end.p0(i64 8, ptr nonnull %4) #23
  br label %17

17:                                               ; preds = %6, %14
  %.010 = phi ptr [ %16, %14 ], [ null, %6 ]
  ret ptr %.010
}